target datalayout = "e-m:e-p270:32:32-p271:32:32-p272:64:64-i64:64-i128:128-f80:128-n8:16:32:64-S128"
target triple = "x86_64-pc-linux-gnu"

%"class.google::protobuf::internal::ExtensionSet" = type { ptr, i16, i16, %"union.google::protobuf::internal::ExtensionSet::AllocatedData" }
%"union.google::protobuf::internal::ExtensionSet::AllocatedData" = type { ptr }
%"struct.std::_Rb_tree_iterator" = type { ptr }
%"class.std::map" = type { %"class.std::_Rb_tree" }
%"class.std::_Rb_tree" = type { %"struct.std::_Rb_tree<int, std::pair<const int, google::protobuf::internal::ExtensionSet::Extension>, std::_Select1st<std::pair<const int, google::protobuf::internal::ExtensionSet::Extension>>, std::less<int>>::_Rb_tree_impl" }
%"struct.std::_Rb_tree<int, std::pair<const int, google::protobuf::internal::ExtensionSet::Extension>, std::_Select1st<std::pair<const int, google::protobuf::internal::ExtensionSet::Extension>>, std::less<int>>::_Rb_tree_impl" = type { [8 x i8], %"struct.std::_Rb_tree_header" }
%"struct.std::_Rb_tree_header" = type { %"struct.std::_Rb_tree_node_base", i64 }
%"struct.std::_Rb_tree_node_base" = type { i32, ptr, ptr, ptr }
%"struct.google::protobuf::internal::ExtensionSet::Extension" = type { %union.anon.4, i8, i8, i8, i8, i32, ptr }
%union.anon.4 = type { i64 }
%"struct.google::protobuf::internal::ExtensionSet::KeyValue" = type { i32, %"struct.google::protobuf::internal::ExtensionSet::Extension" }
%"struct.std::pair.16" = type { i32, %"struct.google::protobuf::internal::ExtensionSet::Extension" }
%"struct.std::_Rb_tree_node" = type { %"struct.std::_Rb_tree_node_base", %"struct.__gnu_cxx::__aligned_membuf" }
%"struct.__gnu_cxx::__aligned_membuf" = type { [32 x i8] }

; Function Attrs: mustprogress nounwind uwtable
define linkonce_odr hidden noundef ptr @_ZN9__gnu_cxx16__aligned_membufISt4pairIKiN6google8protobuf8internal12ExtensionSet9ExtensionEEE7_M_addrEv(ptr noundef nonnull align 8 dereferenceable(32) %0) #4 comdat align 2 {
  %2 = alloca ptr, align 8
  store ptr %0, ptr %2, align 8, !tbaa !644
  %3 = load ptr, ptr %2, align 8
  %4 = getelementptr inbounds nuw %"struct.__gnu_cxx::__aligned_membuf", ptr %3, i32 0, i32 0
  ret ptr %4
}

; Function Attrs: mustprogress nounwind uwtable
define linkonce_odr hidden noundef ptr @_ZN9__gnu_cxx16__aligned_membufISt4pairIKiN6google8protobuf8internal12ExtensionSet9ExtensionEEE6_M_ptrEv(ptr noundef nonnull align 8 dereferenceable(32) %0) #4 comdat align 2 {
  %2 = alloca ptr, align 8
  store ptr %0, ptr %2, align 8, !tbaa !644
  %3 = load ptr, ptr %2, align 8
  %4 = call noundef ptr @_ZN9__gnu_cxx16__aligned_membufISt4pairIKiN6google8protobuf8internal12ExtensionSet9ExtensionEEE7_M_addrEv(ptr noundef nonnull align 8 dereferenceable(32) %3) #3
  ret ptr %4
}

; Function Attrs: mustprogress nounwind uwtable
define linkonce_odr hidden void @_ZNSt17_Rb_tree_iteratorISt4pairIKiN6google8protobuf8internal12ExtensionSet9ExtensionEEEC2EPSt18_Rb_tree_node_base(ptr noundef nonnull align 8 dereferenceable(8) %0, ptr noundef %1) unnamed_addr #4 comdat align 2 {
  %3 = alloca ptr, align 8
  %4 = alloca ptr, align 8
  store ptr %0, ptr %3, align 8, !tbaa !396
  store ptr %1, ptr %4, align 8, !tbaa !359
  %5 = load ptr, ptr %3, align 8
  %6 = getelementptr inbounds nuw %"struct.std::_Rb_tree_iterator", ptr %5, i32 0, i32 0
  %7 = load ptr, ptr %4, align 8, !tbaa !359
  store ptr %7, ptr %6, align 8, !tbaa !398
  ret void
}

; Function Attrs: mustprogress nounwind uwtable
define linkonce_odr hidden noundef ptr @_ZNSt13_Rb_tree_nodeISt4pairIKiN6google8protobuf8internal12ExtensionSet9ExtensionEEE9_M_valptrEv(ptr noundef nonnull align 8 dereferenceable(64) %0) #4 comdat align 2 {
  %2 = alloca ptr, align 8
  store ptr %0, ptr %2, align 8, !tbaa !633
  %3 = load ptr, ptr %2, align 8
  %4 = getelementptr inbounds nuw %"struct.std::_Rb_tree_node", ptr %3, i32 0, i32 1
  %5 = call noundef ptr @_ZN9__gnu_cxx16__aligned_membufISt4pairIKiN6google8protobuf8internal12ExtensionSet9ExtensionEEE6_M_ptrEv(ptr noundef nonnull align 8 dereferenceable(32) %4) #3
  ret ptr %5
}

; Function Attrs: mustprogress nounwind uwtable
define linkonce_odr hidden ptr @_ZNSt8_Rb_treeIiSt4pairIKiN6google8protobuf8internal12ExtensionSet9ExtensionEESt10_Select1stIS7_ESt4lessIiESaIS7_EE3endEv(ptr noundef nonnull align 8 dereferenceable(48) %0) #4 comdat align 2 {
  %2 = alloca %"struct.std::_Rb_tree_iterator", align 8
  %3 = alloca ptr, align 8
  store ptr %0, ptr %3, align 8, !tbaa !631
  %4 = load ptr, ptr %3, align 8
  %5 = getelementptr inbounds nuw %"class.std::_Rb_tree", ptr %4, i32 0, i32 0
  %6 = getelementptr inbounds i8, ptr %5, i64 8
  %7 = getelementptr inbounds nuw %"struct.std::_Rb_tree_header", ptr %6, i32 0, i32 0
  call void @_ZNSt17_Rb_tree_iteratorISt4pairIKiN6google8protobuf8internal12ExtensionSet9ExtensionEEEC2EPSt18_Rb_tree_node_base(ptr noundef nonnull align 8 dereferenceable(8) %2, ptr noundef %7) #3
  %8 = getelementptr inbounds nuw %"struct.std::_Rb_tree_iterator", ptr %2, i32 0, i32 0
  %9 = load ptr, ptr %8, align 8
  ret ptr %9
}

; Function Attrs: mustprogress nounwind uwtable
define linkonce_odr hidden ptr @_ZNSt8_Rb_treeIiSt4pairIKiN6google8protobuf8internal12ExtensionSet9ExtensionEESt10_Select1stIS7_ESt4lessIiESaIS7_EE5beginEv(ptr noundef nonnull align 8 dereferenceable(48) %0) #4 comdat align 2 {
  %2 = alloca %"struct.std::_Rb_tree_iterator", align 8
  %3 = alloca ptr, align 8
  store ptr %0, ptr %3, align 8, !tbaa !631
  %4 = load ptr, ptr %3, align 8
  %5 = getelementptr inbounds nuw %"class.std::_Rb_tree", ptr %4, i32 0, i32 0
  %6 = getelementptr inbounds i8, ptr %5, i64 8
  %7 = getelementptr inbounds nuw %"struct.std::_Rb_tree_header", ptr %6, i32 0, i32 0
  %8 = getelementptr inbounds nuw %"struct.std::_Rb_tree_node_base", ptr %7, i32 0, i32 2
  %9 = load ptr, ptr %8, align 8, !tbaa !731
  call void @_ZNSt17_Rb_tree_iteratorISt4pairIKiN6google8protobuf8internal12ExtensionSet9ExtensionEEEC2EPSt18_Rb_tree_node_base(ptr noundef nonnull align 8 dereferenceable(8) %2, ptr noundef %9) #3
  %10 = getelementptr inbounds nuw %"struct.std::_Rb_tree_iterator", ptr %2, i32 0, i32 0
  %11 = load ptr, ptr %10, align 8
  ret ptr %11
}

; Function Attrs: mustprogress nounwind uwtable
define linkonce_odr hidden noundef ptr @_ZNK6google8protobuf8internal12ExtensionSet8flat_endEv(ptr noundef nonnull align 8 dereferenceable(24) %0) #4 comdat align 2 {
  %2 = alloca ptr, align 8
  store ptr %0, ptr %2, align 8, !tbaa !43
  %3 = load ptr, ptr %2, align 8
  %4 = getelementptr inbounds nuw %"class.google::protobuf::internal::ExtensionSet", ptr %3, i32 0, i32 3
  %5 = load ptr, ptr %4, align 8, !tbaa !20
  %6 = getelementptr inbounds nuw %"class.google::protobuf::internal::ExtensionSet", ptr %3, i32 0, i32 2
  %7 = load i16, ptr %6, align 2, !tbaa !51
  %8 = zext i16 %7 to i32
  %9 = sext i32 %8 to i64
  %10 = getelementptr inbounds %"struct.google::protobuf::internal::ExtensionSet::KeyValue", ptr %5, i64 %9
  ret ptr %10
}

; Function Attrs: mustprogress nounwind uwtable
define linkonce_odr hidden noundef ptr @_ZNK6google8protobuf8internal12ExtensionSet10flat_beginEv(ptr noundef nonnull align 8 dereferenceable(24) %0) #4 comdat align 2 {
  %2 = alloca ptr, align 8
  store ptr %0, ptr %2, align 8, !tbaa !43
  %3 = load ptr, ptr %2, align 8
  %4 = getelementptr inbounds nuw %"class.google::protobuf::internal::ExtensionSet", ptr %3, i32 0, i32 3
  %5 = load ptr, ptr %4, align 8, !tbaa !20
  ret ptr %5
}

; Function Attrs: mustprogress nounwind uwtable
define linkonce_odr hidden noundef nonnull align 8 dereferenceable(8) ptr @_ZNSt17_Rb_tree_iteratorISt4pairIKiN6google8protobuf8internal12ExtensionSet9ExtensionEEEppEv(ptr noundef nonnull align 8 dereferenceable(8) %0) #4 comdat align 2 {
  %2 = alloca ptr, align 8
  store ptr %0, ptr %2, align 8, !tbaa !396
  %3 = load ptr, ptr %2, align 8
  %4 = getelementptr inbounds nuw %"struct.std::_Rb_tree_iterator", ptr %3, i32 0, i32 0
  %5 = load ptr, ptr %4, align 8, !tbaa !398
  %6 = call noundef ptr @_ZSt18_Rb_tree_incrementPSt18_Rb_tree_node_base(ptr noundef %5) #27
  %7 = getelementptr inbounds nuw %"struct.std::_Rb_tree_iterator", ptr %3, i32 0, i32 0
  store ptr %6, ptr %7, align 8, !tbaa !398
  ret ptr %3
}

; Function Attrs: mustprogress nounwind uwtable
define linkonce_odr hidden noundef nonnull align 8 dereferenceable(32) ptr @_ZNKSt17_Rb_tree_iteratorISt4pairIKiN6google8protobuf8internal12ExtensionSet9ExtensionEEEdeEv(ptr noundef nonnull align 8 dereferenceable(8) %0) #4 comdat align 2 {
  %2 = alloca ptr, align 8
  store ptr %0, ptr %2, align 8, !tbaa !396
  %3 = load ptr, ptr %2, align 8
  %4 = getelementptr inbounds nuw %"struct.std::_Rb_tree_iterator", ptr %3, i32 0, i32 0
  %5 = load ptr, ptr %4, align 8, !tbaa !398
  %6 = call noundef ptr @_ZNSt13_Rb_tree_nodeISt4pairIKiN6google8protobuf8internal12ExtensionSet9ExtensionEEE9_M_valptrEv(ptr noundef nonnull align 8 dereferenceable(64) %5)
  ret ptr %6
}

; Function Attrs: mustprogress nounwind uwtable
define linkonce_odr noundef zeroext i1 @_ZStneRKSt17_Rb_tree_iteratorISt4pairIKiN6google8protobuf8internal12ExtensionSet9ExtensionEEESA_(ptr noundef nonnull align 8 dereferenceable(8) %0, ptr noundef nonnull align 8 dereferenceable(8) %1) #4 comdat {
  %3 = alloca ptr, align 8
  %4 = alloca ptr, align 8
  store ptr %0, ptr %3, align 8, !tbaa !396
  store ptr %1, ptr %4, align 8, !tbaa !396
  %5 = load ptr, ptr %3, align 8, !tbaa !396
  %6 = getelementptr inbounds nuw %"struct.std::_Rb_tree_iterator", ptr %5, i32 0, i32 0
  %7 = load ptr, ptr %6, align 8, !tbaa !398
  %8 = load ptr, ptr %4, align 8, !tbaa !396
  %9 = getelementptr inbounds nuw %"struct.std::_Rb_tree_iterator", ptr %8, i32 0, i32 0
  %10 = load ptr, ptr %9, align 8, !tbaa !398
  %11 = icmp ne ptr %7, %10
  ret i1 %11
}

; Function Attrs: mustprogress nounwind uwtable
define linkonce_odr hidden ptr @_ZNSt3mapIiN6google8protobuf8internal12ExtensionSet9ExtensionESt4lessIiESaISt4pairIKiS4_EEE3endEv(ptr noundef nonnull align 8 dereferenceable(48) %0) #4 comdat align 2 {
  %2 = alloca %"struct.std::_Rb_tree_iterator", align 8
  %3 = alloca ptr, align 8
  store ptr %0, ptr %3, align 8, !tbaa !54
  %4 = load ptr, ptr %3, align 8
  %5 = getelementptr inbounds nuw %"class.std::map", ptr %4, i32 0, i32 0
  %6 = call ptr @_ZNSt8_Rb_treeIiSt4pairIKiN6google8protobuf8internal12ExtensionSet9ExtensionEESt10_Select1stIS7_ESt4lessIiESaIS7_EE3endEv(ptr noundef nonnull align 8 dereferenceable(48) %5) #3
  %7 = getelementptr inbounds nuw %"struct.std::_Rb_tree_iterator", ptr %2, i32 0, i32 0
  store ptr %6, ptr %7, align 8
  %8 = getelementptr inbounds nuw %"struct.std::_Rb_tree_iterator", ptr %2, i32 0, i32 0
  %9 = load ptr, ptr %8, align 8
  ret ptr %9
}

; Function Attrs: mustprogress nounwind uwtable
define linkonce_odr hidden ptr @_ZNSt3mapIiN6google8protobuf8internal12ExtensionSet9ExtensionESt4lessIiESaISt4pairIKiS4_EEE5beginEv(ptr noundef nonnull align 8 dereferenceable(48) %0) #4 comdat align 2 {
  %2 = alloca %"struct.std::_Rb_tree_iterator", align 8
  %3 = alloca ptr, align 8
  store ptr %0, ptr %3, align 8, !tbaa !54
  %4 = load ptr, ptr %3, align 8
  %5 = getelementptr inbounds nuw %"class.std::map", ptr %4, i32 0, i32 0
  %6 = call ptr @_ZNSt8_Rb_treeIiSt4pairIKiN6google8protobuf8internal12ExtensionSet9ExtensionEESt10_Select1stIS7_ESt4lessIiESaIS7_EE5beginEv(ptr noundef nonnull align 8 dereferenceable(48) %5) #3
  %7 = getelementptr inbounds nuw %"struct.std::_Rb_tree_iterator", ptr %2, i32 0, i32 0
  store ptr %6, ptr %7, align 8
  %8 = getelementptr inbounds nuw %"struct.std::_Rb_tree_iterator", ptr %2, i32 0, i32 0
  %9 = load ptr, ptr %8, align 8
  ret ptr %9
}

; Function Attrs: mustprogress nounwind uwtable
define linkonce_odr hidden noundef zeroext i1 @_ZNK6google8protobuf8internal12ExtensionSet8is_largeEv(ptr noundef nonnull align 8 dereferenceable(24) %0) #4 comdat align 2 {
  %2 = alloca ptr, align 8
  store ptr %0, ptr %2, align 8, !tbaa !43
  %3 = load ptr, ptr %2, align 8
  %4 = getelementptr inbounds nuw %"class.google::protobuf::internal::ExtensionSet", ptr %3, i32 0, i32 2
  %5 = load i16, ptr %4, align 2, !tbaa !51
  %6 = sext i16 %5 to i32
  %7 = icmp slt i32 %6, 0
  ret i1 %7
}

; Function Attrs: mustprogress uwtable
define hidden noundef zeroext i1 @_ZNK6google8protobuf8internal12ExtensionSet13IsInitializedEv(ptr noundef nonnull align 8 dereferenceable(24) %0) #6 align 2 {
  %2 = alloca i1, align 1
  %3 = alloca ptr, align 8
  %4 = alloca ptr, align 8
  %5 = alloca %"struct.std::_Rb_tree_iterator", align 8
  %6 = alloca %"struct.std::_Rb_tree_iterator", align 8
  %7 = alloca i32, align 4
  %8 = alloca ptr, align 8
  %9 = alloca ptr, align 8
  store ptr %0, ptr %3, align 8, !tbaa !43
  %10 = load ptr, ptr %3, align 8
  %11 = call noundef zeroext i1 @_ZNK6google8protobuf8internal12ExtensionSet8is_largeEv(ptr noundef nonnull align 8 dereferenceable(24) %10)
  %12 = zext i1 %11 to i64
  %13 = call i64 @llvm.expect.i64(i64 %12, i64 0)
  %14 = icmp ne i64 %13, 0
  br i1 %14, label %15, label %42

15:                                               ; preds = %1
  call void @llvm.lifetime.start.p0(i64 8, ptr %4) #3
  %16 = getelementptr inbounds nuw %"class.google::protobuf::internal::ExtensionSet", ptr %10, i32 0, i32 3
  %17 = load ptr, ptr %16, align 8, !tbaa !20
  store ptr %17, ptr %4, align 8, !tbaa !54
  call void @llvm.lifetime.start.p0(i64 8, ptr %5) #3
  %18 = load ptr, ptr %4, align 8, !tbaa !54
  %19 = call ptr @_ZNSt3mapIiN6google8protobuf8internal12ExtensionSet9ExtensionESt4lessIiESaISt4pairIKiS4_EEE5beginEv(ptr noundef nonnull align 8 dereferenceable(48) %18) #3
  %20 = getelementptr inbounds nuw %"struct.std::_Rb_tree_iterator", ptr %5, i32 0, i32 0
  store ptr %19, ptr %20, align 8
  call void @llvm.lifetime.start.p0(i64 8, ptr %6) #3
  %21 = load ptr, ptr %4, align 8, !tbaa !54
  %22 = call ptr @_ZNSt3mapIiN6google8protobuf8internal12ExtensionSet9ExtensionESt4lessIiESaISt4pairIKiS4_EEE3endEv(ptr noundef nonnull align 8 dereferenceable(48) %21) #3
  %23 = getelementptr inbounds nuw %"struct.std::_Rb_tree_iterator", ptr %6, i32 0, i32 0
  store ptr %22, ptr %23, align 8
  br label %24

24:                                               ; preds = %37, %15
  %25 = call noundef zeroext i1 @_ZStneRKSt17_Rb_tree_iteratorISt4pairIKiN6google8protobuf8internal12ExtensionSet9ExtensionEEESA_(ptr noundef nonnull align 8 dereferenceable(8) %5, ptr noundef nonnull align 8 dereferenceable(8) %6) #3
  br i1 %25, label %27, label %26

26:                                               ; preds = %24
  store i32 2, ptr %7, align 4
  br label %39

27:                                               ; preds = %24
  call void @llvm.lifetime.start.p0(i64 8, ptr %8) #3
  %28 = call noundef nonnull align 8 dereferenceable(32) ptr @_ZNKSt17_Rb_tree_iteratorISt4pairIKiN6google8protobuf8internal12ExtensionSet9ExtensionEEEdeEv(ptr noundef nonnull align 8 dereferenceable(8) %5) #3
  store ptr %28, ptr %8, align 8, !tbaa !393
  %29 = load ptr, ptr %8, align 8, !tbaa !393
  %30 = getelementptr inbounds nuw %"struct.std::pair.16", ptr %29, i32 0, i32 1
  %31 = call noundef zeroext i1 @_ZNK6google8protobuf8internal12ExtensionSet9Extension13IsInitializedEv(ptr noundef nonnull align 8 dereferenceable(24) %30)
  br i1 %31, label %33, label %32

32:                                               ; preds = %27
  store i1 false, ptr %2, align 1
  store i32 1, ptr %7, align 4
  br label %34

33:                                               ; preds = %27
  store i32 0, ptr %7, align 4
  br label %34

34:                                               ; preds = %33, %32
  call void @llvm.lifetime.end.p0(i64 8, ptr %8) #3
  %35 = load i32, ptr %7, align 4
  switch i32 %35, label %39 [
    i32 0, label %36
  ]

36:                                               ; preds = %34
  br label %37

37:                                               ; preds = %36
  %38 = call noundef nonnull align 8 dereferenceable(8) ptr @_ZNSt17_Rb_tree_iteratorISt4pairIKiN6google8protobuf8internal12ExtensionSet9ExtensionEEEppEv(ptr noundef nonnull align 8 dereferenceable(8) %5) #3
  br label %24

39:                                               ; preds = %34, %26
  call void @llvm.lifetime.end.p0(i64 8, ptr %6) #3
  call void @llvm.lifetime.end.p0(i64 8, ptr %5) #3
  call void @llvm.lifetime.end.p0(i64 8, ptr %4) #3
  %40 = load i32, ptr %7, align 4
  switch i32 %40, label %63 [
    i32 2, label %41
    i32 1, label %61
  ]

41:                                               ; preds = %39
  store i1 true, ptr %2, align 1
  br label %61

42:                                               ; preds = %1
  call void @llvm.lifetime.start.p0(i64 8, ptr %9) #3
  %43 = call noundef ptr @_ZNK6google8protobuf8internal12ExtensionSet10flat_beginEv(ptr noundef nonnull align 8 dereferenceable(24) %10)
  store ptr %43, ptr %9, align 8, !tbaa !56
  br label %44

44:                                               ; preds = %55, %42
  %45 = load ptr, ptr %9, align 8, !tbaa !56
  %46 = call noundef ptr @_ZNK6google8protobuf8internal12ExtensionSet8flat_endEv(ptr noundef nonnull align 8 dereferenceable(24) %10)
  %47 = icmp ne ptr %45, %46
  br i1 %47, label %49, label %48

48:                                               ; preds = %44
  store i32 4, ptr %7, align 4
  br label %58

49:                                               ; preds = %44
  %50 = load ptr, ptr %9, align 8, !tbaa !56
  %51 = getelementptr inbounds nuw %"struct.google::protobuf::internal::ExtensionSet::KeyValue", ptr %50, i32 0, i32 1
  %52 = call noundef zeroext i1 @_ZNK6google8protobuf8internal12ExtensionSet9Extension13IsInitializedEv(ptr noundef nonnull align 8 dereferenceable(24) %51)
  br i1 %52, label %54, label %53

53:                                               ; preds = %49
  store i1 false, ptr %2, align 1
  store i32 1, ptr %7, align 4
  br label %58

54:                                               ; preds = %49
  br label %55

55:                                               ; preds = %54
  %56 = load ptr, ptr %9, align 8, !tbaa !56
  %57 = getelementptr inbounds nuw %"struct.google::protobuf::internal::ExtensionSet::KeyValue", ptr %56, i32 1
  store ptr %57, ptr %9, align 8, !tbaa !56
  br label %44, !llvm.loop !395

58:                                               ; preds = %53, %48
  call void @llvm.lifetime.end.p0(i64 8, ptr %9) #3
  %59 = load i32, ptr %7, align 4
  switch i32 %59, label %63 [
    i32 4, label %60
    i32 1, label %61
  ]

60:                                               ; preds = %58
  store i1 true, ptr %2, align 1
  br label %61

61:                                               ; preds = %60, %58, %41, %39
  %62 = load i1, ptr %2, align 1
  ret i1 %62

63:                                               ; preds = %58, %39
  unreachable
}