; Function Attrs: mustprogress uwtable
define hidden noundef zeroext i1 @_ZNK6google8protobuf8internal12ExtensionSet13IsInitializedEv(ptr noundef nonnull readonly align 8 captures(none) dereferenceable(24) %0) local_unnamed_addr #8 align 2 personality ptr @__gxx_personality_v0 {
  %2 = getelementptr inbounds nuw i8, ptr %0, i64 10
  %3 = load i16, ptr %2, align 2, !tbaa !66
  %4 = icmp slt i16 %3, 0
  %5 = getelementptr inbounds nuw i8, ptr %0, i64 16
  br i1 %4, label %6, label %15, !prof !50

6:                                                ; preds = %1
  %7 = load ptr, ptr %5, align 8, !tbaa !38
  %8 = getelementptr inbounds nuw i8, ptr %7, i64 24
  %9 = load ptr, ptr %8, align 8, !tbaa !67
  %10 = getelementptr inbounds nuw i8, ptr %7, i64 8
  %.not2132 = icmp eq ptr %9, %10
  br i1 %.not2132, label %_ZNK6google8protobuf8internal12ExtensionSet9Extension13IsInitializedEv.exit.thread, label %.lr.ph35

.lr.ph35:                                         ; preds = %6, %13
  %.sroa.017.033 = phi ptr [ %14, %13 ], [ %9, %6 ]
  %11 = getelementptr inbounds nuw i8, ptr %.sroa.017.033, i64 40
  %12 = tail call noundef zeroext i1 @_ZNK6google8protobuf8internal12ExtensionSet9Extension13IsInitializedEv(ptr noundef nonnull align 8 dereferenceable(24) %11)
  br i1 %12, label %13, label %_ZNK6google8protobuf8internal12ExtensionSet9Extension13IsInitializedEv.exit.thread

13:                                               ; preds = %.lr.ph35
  %14 = tail call noundef ptr @_ZSt18_Rb_tree_incrementPSt18_Rb_tree_node_base(ptr noundef nonnull %.sroa.017.033) #34
  %.not21 = icmp eq ptr %14, %10
  br i1 %.not21, label %_ZNK6google8protobuf8internal12ExtensionSet9Extension13IsInitializedEv.exit.thread, label %.lr.ph35

15:                                               ; preds = %1
  %.not25 = icmp eq i16 %3, 0
  br i1 %.not25, label %_ZNK6google8protobuf8internal12ExtensionSet9Extension13IsInitializedEv.exit.thread, label %.lr.ph.preheader

.lr.ph.preheader:                                 ; preds = %15
  %16 = load ptr, ptr %5, align 8, !tbaa !38
  br label %.lr.ph

.lr.ph:                                           ; preds = %.lr.ph.preheader, %_ZNK6google8protobuf8internal12ExtensionSet9Extension13IsInitializedEv.exit
  %.026 = phi ptr [ %64, %_ZNK6google8protobuf8internal12ExtensionSet9Extension13IsInitializedEv.exit ], [ %16, %.lr.ph.preheader ]
  %17 = getelementptr inbounds nuw i8, ptr %.026, i64 8
  %18 = getelementptr inbounds nuw i8, ptr %.026, i64 16
  %19 = load i8, ptr %18, align 8, !tbaa !83
  %20 = zext i8 %19 to i64
  %21 = getelementptr inbounds nuw [0 x i32], ptr @_ZN6google8protobuf8internal14WireFormatLite22kFieldTypeToCppTypeMapE, i64 0, i64 %20
  %22 = load i32, ptr %21, align 4, !tbaa !84
  %23 = icmp eq i32 %22, 10
  br i1 %23, label %24, label %_ZNK6google8protobuf8internal12ExtensionSet9Extension13IsInitializedEv.exit

24:                                               ; preds = %.lr.ph
  %25 = getelementptr inbounds nuw i8, ptr %.026, i64 17
  %26 = load i8, ptr %25, align 1, !tbaa !103, !range !104, !noundef !80
  %27 = trunc nuw i8 %26 to i1
  br i1 %27, label %.preheader.i, label %48

.preheader.i:                                     ; preds = %24
  %28 = load ptr, ptr %17, align 8, !tbaa !38
  %29 = getelementptr inbounds nuw i8, ptr %28, i64 8
  %30 = load i32, ptr %29, align 8, !tbaa !100
  %31 = icmp sgt i32 %30, 0
  br i1 %31, label %.lr.ph.i, label %_ZNK6google8protobuf8internal12ExtensionSet9Extension13IsInitializedEv.exit

32:                                               ; preds = %.lr.ph.i
  %indvars.iv.next.i = add nuw nsw i64 %indvars.iv.i, 1
  %33 = load ptr, ptr %17, align 8, !tbaa !38
  %34 = getelementptr inbounds nuw i8, ptr %33, i64 8
  %35 = load i32, ptr %34, align 8, !tbaa !100
  %36 = sext i32 %35 to i64
  %37 = icmp slt i64 %indvars.iv.next.i, %36
  br i1 %37, label %.lr.ph.i, label %_ZNK6google8protobuf8internal12ExtensionSet9Extension13IsInitializedEv.exit, !llvm.loop !169

.lr.ph.i:                                         ; preds = %.preheader.i, %32
  %indvars.iv.i = phi i64 [ %indvars.iv.next.i, %32 ], [ 0, %.preheader.i ]
  %38 = phi ptr [ %33, %32 ], [ %28, %.preheader.i ]
  %39 = getelementptr inbounds nuw i8, ptr %38, i64 16
  %40 = load ptr, ptr %39, align 8, !tbaa !105
  %41 = getelementptr inbounds nuw i8, ptr %40, i64 8
  %42 = getelementptr inbounds nuw [268435454 x ptr], ptr %41, i64 0, i64 %indvars.iv.i
  %43 = load ptr, ptr %42, align 8, !tbaa !106
  %44 = load ptr, ptr %43, align 8, !tbaa !54
  %45 = getelementptr inbounds nuw i8, ptr %44, i64 40
  %46 = load ptr, ptr %45, align 8
  %47 = tail call noundef zeroext i1 %46(ptr noundef nonnull align 8 dereferenceable(16) %43)
  br i1 %47, label %32, label %_ZNK6google8protobuf8internal12ExtensionSet9Extension13IsInitializedEv.exit.thread

48:                                               ; preds = %24
  %49 = getelementptr inbounds nuw i8, ptr %.026, i64 18
  %50 = load i8, ptr %49, align 2
  %51 = trunc i8 %50 to i1
  br i1 %51, label %_ZNK6google8protobuf8internal12ExtensionSet9Extension13IsInitializedEv.exit, label %52

52:                                               ; preds = %48
  %53 = and i8 %50, 16
  %.not.i = icmp eq i8 %53, 0
  %54 = load ptr, ptr %17, align 8, !tbaa !38
  %55 = load ptr, ptr %54, align 8, !tbaa !54
  br i1 %.not.i, label %60, label %56

56:                                               ; preds = %52
  %57 = getelementptr inbounds nuw i8, ptr %55, i64 72
  %58 = load ptr, ptr %57, align 8
  %59 = tail call noundef zeroext i1 %58(ptr noundef nonnull align 8 dereferenceable(8) %54)
  br i1 %59, label %_ZNK6google8protobuf8internal12ExtensionSet9Extension13IsInitializedEv.exit, label %_ZNK6google8protobuf8internal12ExtensionSet9Extension13IsInitializedEv.exit.thread

60:                                               ; preds = %52
  %61 = getelementptr inbounds nuw i8, ptr %55, i64 40
  %62 = load ptr, ptr %61, align 8
  %63 = tail call noundef zeroext i1 %62(ptr noundef nonnull align 8 dereferenceable(16) %54)
  br i1 %63, label %_ZNK6google8protobuf8internal12ExtensionSet9Extension13IsInitializedEv.exit, label %_ZNK6google8protobuf8internal12ExtensionSet9Extension13IsInitializedEv.exit.thread

_ZNK6google8protobuf8internal12ExtensionSet9Extension13IsInitializedEv.exit: ; preds = %32, %60, %56, %48, %.preheader.i, %.lr.ph
  %64 = getelementptr inbounds nuw i8, ptr %.026, i64 32
  %65 = load ptr, ptr %5, align 8, !tbaa !38
  %66 = load i16, ptr %2, align 2, !tbaa !66
  %67 = zext i16 %66 to i64
  %68 = getelementptr inbounds nuw %"struct.google::protobuf::internal::ExtensionSet::KeyValue", ptr %65, i64 %67
  %.not = icmp eq ptr %64, %68
  br i1 %.not, label %_ZNK6google8protobuf8internal12ExtensionSet9Extension13IsInitializedEv.exit.thread, label %.lr.ph, !llvm.loop !170

_ZNK6google8protobuf8internal12ExtensionSet9Extension13IsInitializedEv.exit.thread: ; preds = %60, %56, %_ZNK6google8protobuf8internal12ExtensionSet9Extension13IsInitializedEv.exit, %.lr.ph.i, %13, %.lr.ph35, %15, %6
  %.3 = phi i1 [ true, %6 ], [ true, %15 ], [ %12, %.lr.ph35 ], [ %12, %13 ], [ false, %.lr.ph.i ], [ false, %60 ], [ false, %56 ], [ true, %_ZNK6google8protobuf8internal12ExtensionSet9Extension13IsInitializedEv.exit ]
  ret i1 %.3
}